target datalayout = "e-m:e-p270:32:32-p271:32:32-p272:64:64-i64:64-i128:128-f80:128-n8:16:32:64-S128"
target triple = "x86_64-pc-linux-gnu"

%class.Sample_TileMesh = type <{ %class.Sample, i8, i8, [2 x i8], float, ptr, ptr, ptr, ptr, ptr, ptr, %struct.rcConfig, i32, i32, i32, float, i32, [3 x float], [3 x float], float, float, i32, [4 x i8] }>
%class.Sample = type { ptr, ptr, ptr, ptr, ptr, i8, float, float, float, float, float, float, float, float, float, float, float, float, float, i32, i8, i8, i8, ptr, [9 x ptr], ptr, %class.SampleDebugDraw }
%class.SampleDebugDraw = type { %class.DebugDrawGL }
%class.DebugDrawGL = type { %struct.duDebugDraw }
%struct.duDebugDraw = type { ptr }
%struct.rcConfig = type { i32, i32, i32, i32, float, float, [3 x float], [3 x float], float, i32, i32, i32, i32, float, i32, i32, i32, float, float }
%class.InputGeom = type { ptr, ptr, [3 x float], [3 x float], %struct.BuildSettings, i8, [1536 x float], [256 x float], [256 x i8], [256 x i8], [256 x i16], [256 x i32], i32, [256 x %struct.ConvexVolume], i32 }
%struct.BuildSettings = type { float, float, float, float, float, float, float, float, float, float, float, float, float, i32, [3 x float], [3 x float], float }
%struct.ConvexVolume = type { [36 x float], float, float, i32, i32 }

; Function Attrs: mustprogress nounwind uwtable
define linkonce_odr dso_local noundef i32 @_Z6duRGBAiiii(i32 noundef %0, i32 noundef %1, i32 noundef %2, i32 noundef %3) #0 comdat {
  %5 = alloca i32, align 4
  %6 = alloca i32, align 4
  %7 = alloca i32, align 4
  %8 = alloca i32, align 4
  store i32 %0, ptr %5, align 4
  store i32 %1, ptr %6, align 4
  store i32 %2, ptr %7, align 4
  store i32 %3, ptr %8, align 4
  %9 = load i32, ptr %5, align 4
  %10 = load i32, ptr %6, align 4
  %11 = shl i32 %10, 8
  %12 = or i32 %9, %11
  %13 = load i32, ptr %7, align 4
  %14 = shl i32 %13, 16
  %15 = or i32 %12, %14
  %16 = load i32, ptr %8, align 4
  %17 = shl i32 %16, 24
  %18 = or i32 %15, %17
  ret i32 %18
}

; Function Attrs: mustprogress nounwind uwtable
define linkonce_odr dso_local noundef ptr @_ZNK9InputGeom19getNavMeshBoundsMaxEv(ptr noundef nonnull align 8 dereferenceable(50312) %0) #0 comdat align 2 {
  %2 = alloca ptr, align 8
  store ptr %0, ptr %2, align 8
  %3 = load ptr, ptr %2, align 8
  %4 = getelementptr inbounds %class.InputGeom, ptr %3, i32 0, i32 5
  %5 = load i8, ptr %4, align 4
  %6 = trunc i8 %5 to i1
  br i1 %6, label %7, label %10

7:                                                ; preds = %1
  %8 = getelementptr inbounds %class.InputGeom, ptr %3, i32 0, i32 4
  %9 = getelementptr inbounds %struct.BuildSettings, ptr %8, i32 0, i32 15
  br label %12

10:                                               ; preds = %1
  %11 = getelementptr inbounds %class.InputGeom, ptr %3, i32 0, i32 3
  br label %12

12:                                               ; preds = %10, %7
  %13 = phi ptr [ %9, %7 ], [ %11, %10 ]
  %14 = getelementptr inbounds [3 x float], ptr %13, i64 0, i64 0
  ret ptr %14
}

; Function Attrs: mustprogress nounwind uwtable
define linkonce_odr dso_local noundef ptr @_ZNK9InputGeom19getNavMeshBoundsMinEv(ptr noundef nonnull align 8 dereferenceable(50312) %0) #0 comdat align 2 {
  %2 = alloca ptr, align 8
  store ptr %0, ptr %2, align 8
  %3 = load ptr, ptr %2, align 8
  %4 = getelementptr inbounds %class.InputGeom, ptr %3, i32 0, i32 5
  %5 = load i8, ptr %4, align 4
  %6 = trunc i8 %5 to i1
  br i1 %6, label %7, label %10

7:                                                ; preds = %1
  %8 = getelementptr inbounds %class.InputGeom, ptr %3, i32 0, i32 4
  %9 = getelementptr inbounds %struct.BuildSettings, ptr %8, i32 0, i32 14
  br label %12

10:                                               ; preds = %1
  %11 = getelementptr inbounds %class.InputGeom, ptr %3, i32 0, i32 2
  br label %12

12:                                               ; preds = %10, %7
  %13 = phi ptr [ %9, %7 ], [ %11, %10 ]
  %14 = getelementptr inbounds [3 x float], ptr %13, i64 0, i64 0
  ret ptr %14
}

; Function Attrs: mustprogress uwtable
define dso_local void @_ZN15Sample_TileMesh10removeTileEPKf(ptr noundef nonnull align 8 dereferenceable(404) %0, ptr noundef %1) #3 align 2 {
  %3 = alloca ptr, align 8
  %4 = alloca ptr, align 8
  %5 = alloca ptr, align 8
  %6 = alloca ptr, align 8
  %7 = alloca float, align 4
  %8 = alloca i32, align 4
  %9 = alloca i32, align 4
  store ptr %0, ptr %3, align 8
  store ptr %1, ptr %4, align 8
  %10 = load ptr, ptr %3, align 8
  %11 = getelementptr inbounds %class.Sample, ptr %10, i32 0, i32 1
  %12 = load ptr, ptr %11, align 8
  %13 = icmp ne ptr %12, null
  br i1 %13, label %15, label %14

14:                                               ; preds = %2
  br label %110

15:                                               ; preds = %2
  %16 = getelementptr inbounds %class.Sample, ptr %10, i32 0, i32 2
  %17 = load ptr, ptr %16, align 8
  %18 = icmp ne ptr %17, null
  br i1 %18, label %20, label %19

19:                                               ; preds = %15
  br label %110

20:                                               ; preds = %15
  %21 = getelementptr inbounds %class.Sample, ptr %10, i32 0, i32 1
  %22 = load ptr, ptr %21, align 8
  %23 = call noundef ptr @_ZNK9InputGeom19getNavMeshBoundsMinEv(ptr noundef nonnull align 8 dereferenceable(50312) %22)
  store ptr %23, ptr %5, align 8
  %24 = getelementptr inbounds %class.Sample, ptr %10, i32 0, i32 1
  %25 = load ptr, ptr %24, align 8
  %26 = call noundef ptr @_ZNK9InputGeom19getNavMeshBoundsMaxEv(ptr noundef nonnull align 8 dereferenceable(50312) %25)
  store ptr %26, ptr %6, align 8
  %27 = getelementptr inbounds %class.Sample_TileMesh, ptr %10, i32 0, i32 15
  %28 = load float, ptr %27, align 8
  %29 = getelementptr inbounds %class.Sample, ptr %10, i32 0, i32 6
  %30 = load float, ptr %29, align 4
  %31 = fmul float %28, %30
  store float %31, ptr %7, align 4
  %32 = load ptr, ptr %4, align 8
  %33 = getelementptr inbounds float, ptr %32, i64 0
  %34 = load float, ptr %33, align 4
  %35 = load ptr, ptr %5, align 8
  %36 = getelementptr inbounds float, ptr %35, i64 0
  %37 = load float, ptr %36, align 4
  %38 = fsub float %34, %37
  %39 = load float, ptr %7, align 4
  %40 = fdiv float %38, %39
  %41 = fptosi float %40 to i32
  store i32 %41, ptr %8, align 4
  %42 = load ptr, ptr %4, align 8
  %43 = getelementptr inbounds float, ptr %42, i64 2
  %44 = load float, ptr %43, align 4
  %45 = load ptr, ptr %5, align 8
  %46 = getelementptr inbounds float, ptr %45, i64 2
  %47 = load float, ptr %46, align 4
  %48 = fsub float %44, %47
  %49 = load float, ptr %7, align 4
  %50 = fdiv float %48, %49
  %51 = fptosi float %50 to i32
  store i32 %51, ptr %9, align 4
  %52 = load ptr, ptr %5, align 8
  %53 = getelementptr inbounds float, ptr %52, i64 0
  %54 = load float, ptr %53, align 4
  %55 = load i32, ptr %8, align 4
  %56 = sitofp i32 %55 to float
  %57 = load float, ptr %7, align 4
  %58 = call float @llvm.fmuladd.f32(float %56, float %57, float %54)
  %59 = getelementptr inbounds %class.Sample_TileMesh, ptr %10, i32 0, i32 17
  %60 = getelementptr inbounds [3 x float], ptr %59, i64 0, i64 0
  store float %58, ptr %60, align 8
  %61 = load ptr, ptr %5, align 8
  %62 = getelementptr inbounds float, ptr %61, i64 1
  %63 = load float, ptr %62, align 4
  %64 = getelementptr inbounds %class.Sample_TileMesh, ptr %10, i32 0, i32 17
  %65 = getelementptr inbounds [3 x float], ptr %64, i64 0, i64 1
  store float %63, ptr %65, align 4
  %66 = load ptr, ptr %5, align 8
  %67 = getelementptr inbounds float, ptr %66, i64 2
  %68 = load float, ptr %67, align 4
  %69 = load i32, ptr %9, align 4
  %70 = sitofp i32 %69 to float
  %71 = load float, ptr %7, align 4
  %72 = call float @llvm.fmuladd.f32(float %70, float %71, float %68)
  %73 = getelementptr inbounds %class.Sample_TileMesh, ptr %10, i32 0, i32 17
  %74 = getelementptr inbounds [3 x float], ptr %73, i64 0, i64 2
  store float %72, ptr %74, align 8
  %75 = load ptr, ptr %5, align 8
  %76 = getelementptr inbounds float, ptr %75, i64 0
  %77 = load float, ptr %76, align 4
  %78 = load i32, ptr %8, align 4
  %79 = add nsw i32 %78, 1
  %80 = sitofp i32 %79 to float
  %81 = load float, ptr %7, align 4
  %82 = call float @llvm.fmuladd.f32(float %80, float %81, float %77)
  %83 = getelementptr inbounds %class.Sample_TileMesh, ptr %10, i32 0, i32 18
  %84 = getelementptr inbounds [3 x float], ptr %83, i64 0, i64 0
  store float %82, ptr %84, align 4
  %85 = load ptr, ptr %6, align 8
  %86 = getelementptr inbounds float, ptr %85, i64 1
  %87 = load float, ptr %86, align 4
  %88 = getelementptr inbounds %class.Sample_TileMesh, ptr %10, i32 0, i32 18
  %89 = getelementptr inbounds [3 x float], ptr %88, i64 0, i64 1
  store float %87, ptr %89, align 4
  %90 = load ptr, ptr %5, align 8
  %91 = getelementptr inbounds float, ptr %90, i64 2
  %92 = load float, ptr %91, align 4
  %93 = load i32, ptr %9, align 4
  %94 = add nsw i32 %93, 1
  %95 = sitofp i32 %94 to float
  %96 = load float, ptr %7, align 4
  %97 = call float @llvm.fmuladd.f32(float %95, float %96, float %92)
  %98 = getelementptr inbounds %class.Sample_TileMesh, ptr %10, i32 0, i32 18
  %99 = getelementptr inbounds [3 x float], ptr %98, i64 0, i64 2
  store float %97, ptr %99, align 4
  %100 = call noundef i32 @_Z6duRGBAiiii(i32 noundef 128, i32 noundef 32, i32 noundef 16, i32 noundef 64)
  %101 = getelementptr inbounds %class.Sample_TileMesh, ptr %10, i32 0, i32 16
  store i32 %100, ptr %101, align 4
  %102 = getelementptr inbounds %class.Sample, ptr %10, i32 0, i32 2
  %103 = load ptr, ptr %102, align 8
  %104 = getelementptr inbounds %class.Sample, ptr %10, i32 0, i32 2
  %105 = load ptr, ptr %104, align 8
  %106 = load i32, ptr %8, align 4
  %107 = load i32, ptr %9, align 4
  %108 = call noundef i32 @_ZNK9dtNavMesh12getTileRefAtEiii(ptr noundef nonnull align 8 dereferenceable(100) %105, i32 noundef %106, i32 noundef %107, i32 noundef 0)
  %109 = call noundef i32 @_ZN9dtNavMesh10removeTileEjPPhPi(ptr noundef nonnull align 8 dereferenceable(100) %103, i32 noundef %108, ptr noundef null, ptr noundef null)
  br label %110

110:                                              ; preds = %20, %19, %14
  ret void
}