; Function Attrs: mustprogress uwtable
define dso_local void @_ZN15Sample_TileMesh10removeTileEPKf(ptr nocapture noundef nonnull align 8 dereferenceable(404) %0, ptr nocapture noundef readonly %1) local_unnamed_addr #3 align 2 {
  %3 = getelementptr inbounds i8, ptr %0, i64 8
  %4 = load ptr, ptr %3, align 8
  %.not = icmp eq ptr %4, null
  br i1 %.not, label %57, label %5

5:                                                ; preds = %2
  %6 = getelementptr inbounds i8, ptr %0, i64 16
  %7 = load ptr, ptr %6, align 8
  %.not22 = icmp eq ptr %7, null
  br i1 %.not22, label %57, label %8

8:                                                ; preds = %5
  %9 = getelementptr inbounds i8, ptr %4, i64 124
  %10 = load i8, ptr %9, align 4
  %11 = and i8 %10, 1
  %.not.i = icmp eq i8 %11, 0
  %.v.i = select i1 %.not.i, i64 16, i64 96
  %12 = getelementptr inbounds i8, ptr %4, i64 %.v.i
  %.v.i24 = select i1 %.not.i, i64 28, i64 108
  %13 = getelementptr inbounds i8, ptr %4, i64 %.v.i24
  %14 = getelementptr inbounds i8, ptr %0, i64 360
  %15 = load float, ptr %14, align 8
  %16 = getelementptr inbounds i8, ptr %0, i64 44
  %17 = load float, ptr %16, align 4
  %18 = fmul float %15, %17
  %19 = load float, ptr %1, align 4
  %20 = load float, ptr %12, align 4
  %21 = fsub float %19, %20
  %22 = fdiv float %21, %18
  %23 = fptosi float %22 to i32
  %24 = getelementptr inbounds i8, ptr %1, i64 8
  %25 = load float, ptr %24, align 4
  %26 = getelementptr inbounds i8, ptr %12, i64 8
  %27 = load float, ptr %26, align 4
  %28 = fsub float %25, %27
  %29 = fdiv float %28, %18
  %30 = fptosi float %29 to i32
  %31 = sitofp i32 %23 to float
  %32 = tail call float @llvm.fmuladd.f32(float %31, float %18, float %20)
  %33 = getelementptr inbounds i8, ptr %0, i64 368
  store float %32, ptr %33, align 8
  %34 = getelementptr inbounds i8, ptr %12, i64 4
  %35 = load float, ptr %34, align 4
  %36 = getelementptr inbounds i8, ptr %0, i64 372
  store float %35, ptr %36, align 4
  %37 = load float, ptr %26, align 4
  %38 = sitofp i32 %30 to float
  %39 = tail call float @llvm.fmuladd.f32(float %38, float %18, float %37)
  %40 = getelementptr inbounds i8, ptr %0, i64 376
  store float %39, ptr %40, align 8
  %41 = load float, ptr %12, align 4
  %42 = add nsw i32 %23, 1
  %43 = sitofp i32 %42 to float
  %44 = tail call float @llvm.fmuladd.f32(float %43, float %18, float %41)
  %45 = getelementptr inbounds i8, ptr %0, i64 380
  store float %44, ptr %45, align 4
  %46 = getelementptr inbounds i8, ptr %13, i64 4
  %47 = load float, ptr %46, align 4
  %48 = getelementptr inbounds i8, ptr %0, i64 384
  store float %47, ptr %48, align 8
  %49 = load float, ptr %26, align 4
  %50 = add nsw i32 %30, 1
  %51 = sitofp i32 %50 to float
  %52 = tail call float @llvm.fmuladd.f32(float %51, float %18, float %49)
  %53 = getelementptr inbounds i8, ptr %0, i64 388
  store float %52, ptr %53, align 4
  %54 = getelementptr inbounds i8, ptr %0, i64 364
  store i32 1074798720, ptr %54, align 4
  %55 = tail call noundef i32 @_ZNK9dtNavMesh12getTileRefAtEiii(ptr noundef nonnull align 8 dereferenceable(100) %7, i32 noundef %23, i32 noundef %30, i32 noundef 0)
  %56 = tail call noundef i32 @_ZN9dtNavMesh10removeTileEjPPhPi(ptr noundef nonnull align 8 dereferenceable(100) %7, i32 noundef %55, ptr noundef null, ptr noundef null)
  br label %57

57:                                               ; preds = %5, %2, %8
  ret void
}